; Function Attrs: nounwind uwtable
define dso_local zeroext i16 @gintuple_get_attrnum(ptr noundef readonly captures(none) %0, ptr noundef %1) local_unnamed_addr #0 {
  %3 = getelementptr inbounds nuw i8, ptr %0, i64 8
  %4 = load i8, ptr %3, align 8, !range !4, !noundef !5
  %5 = trunc nuw i8 %4 to i1
  br i1 %5, label %50, label %6

6:                                                ; preds = %2
  %7 = getelementptr inbounds nuw i8, ptr %0, i64 24
  %8 = load ptr, ptr %7, align 8
  %9 = getelementptr i8, ptr %1, i64 6
  %.val.i = load i16, ptr %9, align 2
  %10 = icmp slt i16 %.val.i, 0
  br i1 %10, label %44, label %11

11:                                               ; preds = %6
  %12 = getelementptr inbounds nuw i8, ptr %8, i64 24
  %13 = load i32, ptr %12, align 4
  %14 = icmp sgt i32 %13, -1
  br i1 %14, label %15, label %42

15:                                               ; preds = %11
  %16 = getelementptr inbounds nuw i8, ptr %1, i64 8
  %17 = zext nneg i32 %13 to i64
  %18 = getelementptr inbounds nuw i8, ptr %16, i64 %17
  %19 = getelementptr inbounds nuw i8, ptr %8, i64 30
  %20 = load i8, ptr %19, align 2, !range !4, !noundef !5
  %21 = trunc nuw i8 %20 to i1
  %22 = getelementptr inbounds nuw i8, ptr %8, i64 28
  %23 = load i16, ptr %22, align 4
  br i1 %21, label %24, label %40

24:                                               ; preds = %15
  switch i16 %23, label %36 [
    i16 1, label %25
    i16 2, label %28
    i16 4, label %31
    i16 8, label %34
  ]

25:                                               ; preds = %24
  %26 = load i8, ptr %18, align 1
  %27 = sext i8 %26 to i64
  br label %index_getattr.exit

28:                                               ; preds = %24
  %29 = load i16, ptr %18, align 2
  %30 = zext i16 %29 to i64
  br label %index_getattr.exit

31:                                               ; preds = %24
  %32 = load i32, ptr %18, align 4
  %33 = zext i32 %32 to i64
  br label %index_getattr.exit

34:                                               ; preds = %24
  %35 = load i64, ptr %18, align 8
  br label %index_getattr.exit

36:                                               ; preds = %24
  %37 = sext i16 %23 to i32
  %38 = tail call zeroext i1 @errstart_cold(i32 noundef 21, ptr noundef null) #8
  tail call void @llvm.assume(i1 %38)
  %39 = tail call i32 (ptr, ...) @errmsg_internal(ptr noundef nonnull @.str.5, i32 noundef range(i32 -32768, 32768) %37) #7
  tail call void @errfinish(ptr noundef nonnull @.str.6, i32 noundef 70, ptr noundef nonnull @__func__.fetch_att) #7
  unreachable

40:                                               ; preds = %15
  %41 = ptrtoint ptr %18 to i64
  br label %index_getattr.exit

42:                                               ; preds = %11
  %43 = tail call i64 @nocache_index_getattr(ptr noundef nonnull %1, i32 noundef 1, ptr noundef nonnull %8) #7
  br label %index_getattr.exit

44:                                               ; preds = %6
  %45 = getelementptr inbounds nuw i8, ptr %1, i64 8
  %.val19.i = load i8, ptr %45, align 1
  %46 = and i8 %.val19.i, 1
  %.not.i20.i = icmp eq i8 %46, 0
  br i1 %.not.i20.i, label %index_getattr.exit, label %47

47:                                               ; preds = %44
  %48 = tail call i64 @nocache_index_getattr(ptr noundef nonnull %1, i32 noundef 1, ptr noundef %8) #7
  br label %index_getattr.exit

index_getattr.exit:                               ; preds = %44, %25, %28, %31, %34, %40, %42, %47
  %.1.i = phi i64 [ %48, %47 ], [ %43, %42 ], [ %35, %34 ], [ %33, %31 ], [ %30, %28 ], [ %27, %25 ], [ %41, %40 ], [ 0, %44 ]
  %49 = trunc i64 %.1.i to i16
  br label %50

50:                                               ; preds = %2, %index_getattr.exit
  %.0 = phi i16 [ %49, %index_getattr.exit ], [ 1, %2 ]
  ret i16 %.0
}